target datalayout = "e-m:e-p270:32:32-p271:32:32-p272:64:64-i64:64-i128:128-f80:128-n8:16:32:64-S128"
target triple = "x86_64-pc-linux-gnu"

%struct.OSSL_HPKE_KEM_INFO = type { i16, ptr, ptr, ptr, i64, i64, i64, i64, i8 }

@.str = private unnamed_addr constant [5 x i8] c"HKDF\00", align 1
@.str.1 = private unnamed_addr constant [50 x i8] c"../openssl/providers/implementations/kem/ec_kem.c\00", align 1
@__func__.ossl_ec_dhkem_derive_private = private unnamed_addr constant [29 x i8] c"ossl_ec_dhkem_derive_private\00", align 1
@.str.2 = private unnamed_addr constant [43 x i8] c"ikm length is :%zu, should be at least %zu\00", align 1
@LABEL_KEM = internal constant [4 x i8] c"KEM\00", align 1
@.str.3 = private unnamed_addr constant [8 x i8] c"dkp_prk\00", align 1
@.str.4 = private unnamed_addr constant [10 x i8] c"candidate\00", align 1

; Function Attrs: nounwind uwtable
define internal ptr @ec_curvename_get0(ptr noundef %0) #0 {
  %2 = alloca ptr, align 8
  %3 = alloca ptr, align 8
  store ptr %0, ptr %2, align 8, !tbaa !3
  call void @llvm.lifetime.start.p0(i64 8, ptr %3) #5
  %4 = load ptr, ptr %2, align 8, !tbaa !3
  %5 = call ptr @EC_KEY_get0_group(ptr noundef %4)
  store ptr %5, ptr %3, align 8, !tbaa !29
  %6 = load ptr, ptr %3, align 8, !tbaa !29
  %7 = call i32 @EC_GROUP_get_curve_name(ptr noundef %6)
  %8 = call ptr @EC_curve_nid2nist(i32 noundef %7)
  call void @llvm.lifetime.end.p0(i64 8, ptr %3) #5
  ret ptr %8
}

; Function Attrs: nounwind uwtable
define i32 @ossl_ec_dhkem_derive_private(ptr noundef %0, ptr noundef %1, ptr noundef %2, i64 noundef %3) #0 {
  %5 = alloca i32, align 4
  %6 = alloca ptr, align 8
  %7 = alloca ptr, align 8
  %8 = alloca ptr, align 8
  %9 = alloca i64, align 8
  %10 = alloca i32, align 4
  %11 = alloca ptr, align 8
  %12 = alloca [2 x i8], align 1
  %13 = alloca [64 x i8], align 16
  %14 = alloca [66 x i8], align 16
  %15 = alloca ptr, align 8
  %16 = alloca i8, align 1
  %17 = alloca ptr, align 8
  %18 = alloca ptr, align 8
  %19 = alloca i32, align 4
  store ptr %0, ptr %6, align 8, !tbaa !3
  store ptr %1, ptr %7, align 8, !tbaa !8
  store ptr %2, ptr %8, align 8, !tbaa !10
  store i64 %3, ptr %9, align 8, !tbaa !12
  call void @llvm.lifetime.start.p0(i64 4, ptr %10) #5
  store i32 0, ptr %10, align 4, !tbaa !14
  call void @llvm.lifetime.start.p0(i64 8, ptr %11) #5
  store ptr null, ptr %11, align 8, !tbaa !16
  call void @llvm.lifetime.start.p0(i64 2, ptr %12) #5
  call void @llvm.lifetime.start.p0(i64 64, ptr %13) #5
  call void @llvm.lifetime.start.p0(i64 66, ptr %14) #5
  call void @llvm.lifetime.start.p0(i64 8, ptr %15) #5
  call void @llvm.lifetime.start.p0(i64 1, ptr %16) #5
  store i8 0, ptr %16, align 1, !tbaa !18
  call void @llvm.lifetime.start.p0(i64 8, ptr %17) #5
  %20 = load ptr, ptr %6, align 8, !tbaa !3
  %21 = call ptr @ec_curvename_get0(ptr noundef %20)
  store ptr %21, ptr %17, align 8, !tbaa !10
  call void @llvm.lifetime.start.p0(i64 8, ptr %18) #5
  %22 = load ptr, ptr %17, align 8, !tbaa !10
  %23 = icmp eq ptr %22, null
  br i1 %23, label %24, label %25

24:                                               ; preds = %4
  store i32 -2, ptr %5, align 4
  store i32 1, ptr %19, align 4
  br label %142

25:                                               ; preds = %4
  %26 = load ptr, ptr %17, align 8, !tbaa !10
  %27 = call ptr @ossl_HPKE_KEM_INFO_find_curve(ptr noundef %26)
  store ptr %27, ptr %18, align 8, !tbaa !19
  %28 = load ptr, ptr %18, align 8, !tbaa !19
  %29 = icmp eq ptr %28, null
  br i1 %29, label %30, label %31

30:                                               ; preds = %25
  store i32 -2, ptr %5, align 4
  store i32 1, ptr %19, align 4
  br label %142

31:                                               ; preds = %25
  %32 = load ptr, ptr %18, align 8, !tbaa !19
  %33 = getelementptr inbounds nuw %struct.OSSL_HPKE_KEM_INFO, ptr %32, i32 0, i32 3
  %34 = load ptr, ptr %33, align 8, !tbaa !20
  %35 = load ptr, ptr %6, align 8, !tbaa !3
  %36 = call ptr @ossl_ec_key_get_libctx(ptr noundef %35)
  %37 = load ptr, ptr %6, align 8, !tbaa !3
  %38 = call ptr @ossl_ec_key_get0_propq(ptr noundef %37)
  %39 = call ptr @ossl_kdf_ctx_create(ptr noundef @.str, ptr noundef %34, ptr noundef %36, ptr noundef %38)
  store ptr %39, ptr %11, align 8, !tbaa !16
  %40 = load ptr, ptr %11, align 8, !tbaa !16
  %41 = icmp eq ptr %40, null
  br i1 %41, label %42, label %43

42:                                               ; preds = %31
  store i32 0, ptr %5, align 4
  store i32 1, ptr %19, align 4
  br label %142

43:                                               ; preds = %31
  %44 = load i64, ptr %9, align 8, !tbaa !12
  %45 = load ptr, ptr %18, align 8, !tbaa !19
  %46 = getelementptr inbounds nuw %struct.OSSL_HPKE_KEM_INFO, ptr %45, i32 0, i32 7
  %47 = load i64, ptr %46, align 8, !tbaa !23
  %48 = icmp ult i64 %44, %47
  br i1 %48, label %49, label %54

49:                                               ; preds = %43
  call void @ERR_new()
  call void @ERR_set_debug(ptr noundef @.str.1, i32 noundef 409, ptr noundef @__func__.ossl_ec_dhkem_derive_private)
  %50 = load i64, ptr %9, align 8, !tbaa !12
  %51 = load ptr, ptr %18, align 8, !tbaa !19
  %52 = getelementptr inbounds nuw %struct.OSSL_HPKE_KEM_INFO, ptr %51, i32 0, i32 7
  %53 = load i64, ptr %52, align 8, !tbaa !23
  call void (i32, i32, ptr, ...) @ERR_set_error(i32 noundef 57, i32 noundef 230, ptr noundef @.str.2, i64 noundef %50, i64 noundef %53)
  br label %137

54:                                               ; preds = %43
  %55 = load ptr, ptr %18, align 8, !tbaa !19
  %56 = getelementptr inbounds nuw %struct.OSSL_HPKE_KEM_INFO, ptr %55, i32 0, i32 0
  %57 = load i16, ptr %56, align 8, !tbaa !24
  %58 = zext i16 %57 to i32
  %59 = sdiv i32 %58, 256
  %60 = trunc i32 %59 to i8
  %61 = getelementptr inbounds [2 x i8], ptr %12, i64 0, i64 0
  store i8 %60, ptr %61, align 1, !tbaa !18
  %62 = load ptr, ptr %18, align 8, !tbaa !19
  %63 = getelementptr inbounds nuw %struct.OSSL_HPKE_KEM_INFO, ptr %62, i32 0, i32 0
  %64 = load i16, ptr %63, align 8, !tbaa !24
  %65 = zext i16 %64 to i32
  %66 = srem i32 %65, 256
  %67 = trunc i32 %66 to i8
  %68 = getelementptr inbounds [2 x i8], ptr %12, i64 0, i64 1
  store i8 %67, ptr %68, align 1, !tbaa !18
  %69 = load ptr, ptr %11, align 8, !tbaa !16
  %70 = getelementptr inbounds [64 x i8], ptr %13, i64 0, i64 0
  %71 = load ptr, ptr %18, align 8, !tbaa !19
  %72 = getelementptr inbounds nuw %struct.OSSL_HPKE_KEM_INFO, ptr %71, i32 0, i32 4
  %73 = load i64, ptr %72, align 8, !tbaa !25
  %74 = getelementptr inbounds [2 x i8], ptr %12, i64 0, i64 0
  %75 = load ptr, ptr %8, align 8, !tbaa !10
  %76 = load i64, ptr %9, align 8, !tbaa !12
  %77 = call i32 @ossl_hpke_labeled_extract(ptr noundef %69, ptr noundef %70, i64 noundef %73, ptr noundef null, i64 noundef 0, ptr noundef @LABEL_KEM, ptr noundef %74, i64 noundef 2, ptr noundef @.str.3, ptr noundef %75, i64 noundef %76)
  %78 = icmp ne i32 %77, 0
  br i1 %78, label %80, label %79

79:                                               ; preds = %54
  br label %137

80:                                               ; preds = %54
  %81 = load ptr, ptr %6, align 8, !tbaa !3
  %82 = call ptr @EC_KEY_get0_group(ptr noundef %81)
  %83 = call ptr @EC_GROUP_get0_order(ptr noundef %82)
  store ptr %83, ptr %15, align 8, !tbaa !8
  br label %84

84:                                               ; preds = %134, %80
  %85 = load ptr, ptr %11, align 8, !tbaa !16
  %86 = getelementptr inbounds [66 x i8], ptr %14, i64 0, i64 0
  %87 = load ptr, ptr %18, align 8, !tbaa !19
  %88 = getelementptr inbounds nuw %struct.OSSL_HPKE_KEM_INFO, ptr %87, i32 0, i32 7
  %89 = load i64, ptr %88, align 8, !tbaa !23
  %90 = getelementptr inbounds [64 x i8], ptr %13, i64 0, i64 0
  %91 = load ptr, ptr %18, align 8, !tbaa !19
  %92 = getelementptr inbounds nuw %struct.OSSL_HPKE_KEM_INFO, ptr %91, i32 0, i32 4
  %93 = load i64, ptr %92, align 8, !tbaa !25
  %94 = getelementptr inbounds [2 x i8], ptr %12, i64 0, i64 0
  %95 = call i32 @ossl_hpke_labeled_expand(ptr noundef %85, ptr noundef %86, i64 noundef %89, ptr noundef %90, i64 noundef %93, ptr noundef @LABEL_KEM, ptr noundef %94, i64 noundef 2, ptr noundef @.str.4, ptr noundef %16, i64 noundef 1)
  %96 = icmp ne i32 %95, 0
  br i1 %96, label %98, label %97

97:                                               ; preds = %84
  br label %137

98:                                               ; preds = %84
  %99 = load ptr, ptr %18, align 8, !tbaa !19
  %100 = getelementptr inbounds nuw %struct.OSSL_HPKE_KEM_INFO, ptr %99, i32 0, i32 8
  %101 = load i8, ptr %100, align 8, !tbaa !26
  %102 = zext i8 %101 to i32
  %103 = getelementptr inbounds [66 x i8], ptr %14, i64 0, i64 0
  %104 = load i8, ptr %103, align 16, !tbaa !18
  %105 = zext i8 %104 to i32
  %106 = and i32 %105, %102
  %107 = trunc i32 %106 to i8
  store i8 %107, ptr %103, align 16, !tbaa !18
  %108 = getelementptr inbounds [66 x i8], ptr %14, i64 0, i64 0
  %109 = load ptr, ptr %18, align 8, !tbaa !19
  %110 = getelementptr inbounds nuw %struct.OSSL_HPKE_KEM_INFO, ptr %109, i32 0, i32 7
  %111 = load i64, ptr %110, align 8, !tbaa !23
  %112 = trunc i64 %111 to i32
  %113 = load ptr, ptr %7, align 8, !tbaa !8
  %114 = call ptr @BN_bin2bn(ptr noundef %108, i32 noundef %112, ptr noundef %113)
  %115 = icmp eq ptr %114, null
  br i1 %115, label %116, label %117

116:                                              ; preds = %98
  br label %137

117:                                              ; preds = %98
  %118 = load i8, ptr %16, align 1, !tbaa !18
  %119 = zext i8 %118 to i32
  %120 = icmp eq i32 %119, 255
  br i1 %120, label %121, label %122

121:                                              ; preds = %117
  call void @ERR_new()
  call void @ERR_set_debug(ptr noundef @.str.1, i32 noundef 435, ptr noundef @__func__.ossl_ec_dhkem_derive_private)
  call void (i32, i32, ptr, ...) @ERR_set_error(i32 noundef 57, i32 noundef 121, ptr noundef null)
  br label %137

122:                                              ; preds = %117
  %123 = load i8, ptr %16, align 1, !tbaa !18
  %124 = add i8 %123, 1
  store i8 %124, ptr %16, align 1, !tbaa !18
  br label %125

125:                                              ; preds = %122
  %126 = load ptr, ptr %7, align 8, !tbaa !8
  %127 = call i32 @BN_is_zero(ptr noundef %126)
  %128 = icmp ne i32 %127, 0
  br i1 %128, label %134, label %129

129:                                              ; preds = %125
  %130 = load ptr, ptr %7, align 8, !tbaa !8
  %131 = load ptr, ptr %15, align 8, !tbaa !8
  %132 = call i32 @BN_cmp(ptr noundef %130, ptr noundef %131)
  %133 = icmp sge i32 %132, 0
  br label %134

134:                                              ; preds = %129, %125
  %135 = phi i1 [ true, %125 ], [ %133, %129 ]
  br i1 %135, label %84, label %136, !llvm.loop !27

136:                                              ; preds = %134
  store i32 1, ptr %10, align 4, !tbaa !14
  br label %137

137:                                              ; preds = %136, %121, %116, %97, %79, %49
  %138 = getelementptr inbounds [64 x i8], ptr %13, i64 0, i64 0
  call void @OPENSSL_cleanse(ptr noundef %138, i64 noundef 64)
  %139 = getelementptr inbounds [66 x i8], ptr %14, i64 0, i64 0
  call void @OPENSSL_cleanse(ptr noundef %139, i64 noundef 66)
  %140 = load ptr, ptr %11, align 8, !tbaa !16
  call void @EVP_KDF_CTX_free(ptr noundef %140)
  %141 = load i32, ptr %10, align 4, !tbaa !14
  store i32 %141, ptr %5, align 4
  store i32 1, ptr %19, align 4
  br label %142

142:                                              ; preds = %137, %42, %30, %24
  call void @llvm.lifetime.end.p0(i64 8, ptr %18) #5
  call void @llvm.lifetime.end.p0(i64 8, ptr %17) #5
  call void @llvm.lifetime.end.p0(i64 1, ptr %16) #5
  call void @llvm.lifetime.end.p0(i64 8, ptr %15) #5
  call void @llvm.lifetime.end.p0(i64 66, ptr %14) #5
  call void @llvm.lifetime.end.p0(i64 64, ptr %13) #5
  call void @llvm.lifetime.end.p0(i64 2, ptr %12) #5
  call void @llvm.lifetime.end.p0(i64 8, ptr %11) #5
  call void @llvm.lifetime.end.p0(i64 4, ptr %10) #5
  %143 = load i32, ptr %5, align 4
  ret i32 %143
}