; Function Attrs: nounwind uwtable
define range(i32 -2, 2) i32 @ossl_ec_dhkem_derive_private(ptr noundef %0, ptr noundef %1, ptr noundef %2, i64 noundef %3) local_unnamed_addr #0 {
  %5 = alloca [2 x i8], align 1
  %6 = alloca [64 x i8], align 16
  %7 = alloca [66 x i8], align 16
  %8 = alloca i8, align 1
  call void @llvm.lifetime.start.p0(i64 2, ptr nonnull %5) #5
  call void @llvm.lifetime.start.p0(i64 64, ptr nonnull %6) #5
  call void @llvm.lifetime.start.p0(i64 66, ptr nonnull %7) #5
  call void @llvm.lifetime.start.p0(i64 1, ptr nonnull %8) #5
  store i8 0, ptr %8, align 1, !tbaa !3
  %9 = tail call ptr @EC_KEY_get0_group(ptr noundef %0) #5
  %10 = tail call i32 @EC_GROUP_get_curve_name(ptr noundef %9) #5
  %11 = tail call ptr @EC_curve_nid2nist(i32 noundef %10) #5
  %12 = icmp eq ptr %11, null
  br i1 %12, label %66, label %13

13:                                               ; preds = %4
  %14 = tail call ptr @ossl_HPKE_KEM_INFO_find_curve(ptr noundef nonnull %11) #5
  %15 = icmp eq ptr %14, null
  br i1 %15, label %66, label %16

16:                                               ; preds = %13
  %17 = getelementptr inbounds nuw i8, ptr %14, i64 24
  %18 = load ptr, ptr %17, align 8, !tbaa !6
  %19 = tail call ptr @ossl_ec_key_get_libctx(ptr noundef %0) #5
  %20 = tail call ptr @ossl_ec_key_get0_propq(ptr noundef %0) #5
  %21 = tail call ptr @ossl_kdf_ctx_create(ptr noundef nonnull @.str, ptr noundef %18, ptr noundef %19, ptr noundef %20) #5
  %22 = icmp eq ptr %21, null
  br i1 %22, label %66, label %23

23:                                               ; preds = %16
  %24 = getelementptr inbounds nuw i8, ptr %14, i64 56
  %25 = load i64, ptr %24, align 8, !tbaa !12
  %26 = icmp ult i64 %3, %25
  br i1 %26, label %27, label %29

27:                                               ; preds = %23
  tail call void @ERR_new() #5
  tail call void @ERR_set_debug(ptr noundef nonnull @.str.1, i32 noundef 409, ptr noundef nonnull @__func__.ossl_ec_dhkem_derive_private) #5
  %28 = load i64, ptr %24, align 8, !tbaa !12
  tail call void (i32, i32, ptr, ...) @ERR_set_error(i32 noundef 57, i32 noundef 230, ptr noundef nonnull @.str.2, i64 noundef %3, i64 noundef %28) #5
  br label %.loopexit

29:                                               ; preds = %23
  %30 = load i16, ptr %14, align 8, !tbaa !13
  %31 = lshr i16 %30, 8
  %32 = trunc nuw i16 %31 to i8
  store i8 %32, ptr %5, align 1, !tbaa !3
  %33 = trunc i16 %30 to i8
  %34 = getelementptr inbounds nuw i8, ptr %5, i64 1
  store i8 %33, ptr %34, align 1, !tbaa !3
  %35 = getelementptr inbounds nuw i8, ptr %14, i64 32
  %36 = load i64, ptr %35, align 8, !tbaa !14
  %37 = call i32 @ossl_hpke_labeled_extract(ptr noundef nonnull %21, ptr noundef nonnull %6, i64 noundef %36, ptr noundef null, i64 noundef 0, ptr noundef nonnull @LABEL_KEM, ptr noundef nonnull %5, i64 noundef 2, ptr noundef nonnull @.str.3, ptr noundef %2, i64 noundef %3) #5
  %.not = icmp eq i32 %37, 0
  br i1 %.not, label %.loopexit, label %38

38:                                               ; preds = %29
  %39 = call ptr @EC_KEY_get0_group(ptr noundef %0) #5
  %40 = call ptr @EC_GROUP_get0_order(ptr noundef %39) #5
  %41 = load i64, ptr %24, align 8, !tbaa !12
  %42 = load i64, ptr %35, align 8, !tbaa !14
  %43 = call i32 @ossl_hpke_labeled_expand(ptr noundef nonnull %21, ptr noundef nonnull %7, i64 noundef %41, ptr noundef nonnull %6, i64 noundef %42, ptr noundef nonnull @LABEL_KEM, ptr noundef nonnull %5, i64 noundef 2, ptr noundef nonnull @.str.4, ptr noundef nonnull %8, i64 noundef 1) #5
  %.not3537 = icmp eq i32 %43, 0
  br i1 %.not3537, label %.loopexit, label %.lr.ph

.lr.ph:                                           ; preds = %38
  %44 = getelementptr inbounds nuw i8, ptr %14, i64 64
  br label %45

45:                                               ; preds = %.lr.ph, %.critedge.backedge
  %46 = load i8, ptr %44, align 8, !tbaa !15
  %47 = load i8, ptr %7, align 16, !tbaa !3
  %48 = and i8 %47, %46
  store i8 %48, ptr %7, align 16, !tbaa !3
  %49 = load i64, ptr %24, align 8, !tbaa !12
  %50 = trunc i64 %49 to i32
  %51 = call ptr @BN_bin2bn(ptr noundef nonnull %7, i32 noundef %50, ptr noundef %1) #5
  %52 = icmp eq ptr %51, null
  br i1 %52, label %.loopexit, label %53

53:                                               ; preds = %45
  %54 = load i8, ptr %8, align 1, !tbaa !3
  %55 = icmp eq i8 %54, -1
  br i1 %55, label %56, label %57

56:                                               ; preds = %53
  call void @ERR_new() #5
  call void @ERR_set_debug(ptr noundef nonnull @.str.1, i32 noundef 435, ptr noundef nonnull @__func__.ossl_ec_dhkem_derive_private) #5
  call void (i32, i32, ptr, ...) @ERR_set_error(i32 noundef 57, i32 noundef 121, ptr noundef null) #5
  br label %.loopexit

57:                                               ; preds = %53
  %58 = add nuw i8 %54, 1
  store i8 %58, ptr %8, align 1, !tbaa !3
  %59 = call i32 @BN_is_zero(ptr noundef %1) #5
  %.not36 = icmp eq i32 %59, 0
  br i1 %.not36, label %60, label %.critedge.backedge

60:                                               ; preds = %57
  %61 = call i32 @BN_cmp(ptr noundef %1, ptr noundef %40) #5
  %62 = icmp sgt i32 %61, -1
  br i1 %62, label %.critedge.backedge, label %.loopexit

.critedge.backedge:                               ; preds = %60, %57
  %63 = load i64, ptr %24, align 8, !tbaa !12
  %64 = load i64, ptr %35, align 8, !tbaa !14
  %65 = call i32 @ossl_hpke_labeled_expand(ptr noundef nonnull %21, ptr noundef nonnull %7, i64 noundef %63, ptr noundef nonnull %6, i64 noundef %64, ptr noundef nonnull @LABEL_KEM, ptr noundef nonnull %5, i64 noundef 2, ptr noundef nonnull @.str.4, ptr noundef nonnull %8, i64 noundef 1) #5
  %.not35 = icmp eq i32 %65, 0
  br i1 %.not35, label %.loopexit, label %45, !llvm.loop !16

.loopexit:                                        ; preds = %.critedge.backedge, %45, %60, %38, %29, %56, %27
  %.030 = phi i32 [ 0, %27 ], [ 0, %56 ], [ 0, %29 ], [ 0, %38 ], [ 0, %.critedge.backedge ], [ 0, %45 ], [ 1, %60 ]
  call void @OPENSSL_cleanse(ptr noundef nonnull %6, i64 noundef 64) #5
  call void @OPENSSL_cleanse(ptr noundef nonnull %7, i64 noundef 66) #5
  call void @EVP_KDF_CTX_free(ptr noundef nonnull %21) #5
  br label %66

66:                                               ; preds = %16, %13, %4, %.loopexit
  %.0 = phi i32 [ %.030, %.loopexit ], [ -2, %4 ], [ -2, %13 ], [ 0, %16 ]
  call void @llvm.lifetime.end.p0(i64 1, ptr nonnull %8) #5
  call void @llvm.lifetime.end.p0(i64 66, ptr nonnull %7) #5
  call void @llvm.lifetime.end.p0(i64 64, ptr nonnull %6) #5
  call void @llvm.lifetime.end.p0(i64 2, ptr nonnull %5) #5
  ret i32 %.0
}